target datalayout = "e-m:e-p270:32:32-p271:32:32-p272:64:64-i64:64-i128:128-f80:128-n8:16:32:64-S128"
target triple = "x86_64-pc-linux-gnu"

%struct._zend_compiler_globals = type { %struct._zend_stack, ptr, ptr, i32, ptr, ptr, ptr, ptr, i8, i8, i8, i8, i8, %struct._zend_llist, ptr, i8, i8, i8, i8, ptr, i32, i32, %struct._zend_oparray_context, %struct._zend_file_context, ptr, %struct._zend_array, ptr, i64, i8, i8, i8, ptr, ptr, %struct._zend_stack, ptr, i32, ptr, ptr, i64, i64, ptr, ptr, ptr, ptr, i32, %struct._zend_stack }
%struct._zend_llist = type { ptr, ptr, i64, i64, ptr, i8, ptr }
%struct._zend_oparray_context = type { i32, i32, i32, i32, i32, i32, i32, ptr, ptr, i8 }
%struct._zend_file_context = type { %struct._zend_declarables, ptr, i8, i8, ptr, ptr, ptr, %struct._zend_array }
%struct._zend_declarables = type { i64 }
%struct._zend_array = type { %struct._zend_refcounted_h, %union.anon.0, i32, %union.anon.1, i32, i32, i32, i32, i64, ptr }
%struct._zend_refcounted_h = type { i32, %union.anon }
%union.anon = type { i32 }
%union.anon.0 = type { i32 }
%union.anon.1 = type { ptr }
%struct._zend_stack = type { i32, i32, i32, ptr }
%struct._zend_executor_globals = type { %struct._zval_struct, %struct._zval_struct, [32 x ptr], ptr, ptr, %struct._zend_array, %struct._zend_array, ptr, i32, i32, ptr, ptr, ptr, ptr, ptr, ptr, i64, ptr, ptr, i32, i32, i64, i32, i32, i32, i8, i8, %struct.zend_atomic_bool_s, %struct.zend_atomic_bool_s, ptr, i64, ptr, ptr, %struct._zend_array, %struct._zend_array, i32, i8, %struct._zval_struct, %struct._zval_struct, %struct._zend_stack, %struct._zend_stack, %struct._zend_stack, ptr, i32, i32, i64, ptr, ptr, ptr, %struct._zend_objects_store, ptr, ptr, ptr, [3 x %struct._zend_op], ptr, i8, i8, i64, i32, i32, ptr, [16 x %struct._HashTableIterator], ptr, %union._zend_function, %struct._zend_op, %struct._zend_array, i64, %struct.zend_get_gc_buffer, ptr, ptr, ptr, i64, i8, i32, ptr, ptr, i64, %struct._zend_call_stack, i64, i64, [6 x ptr] }
%struct.zend_atomic_bool_s = type { i8 }
%struct._zval_struct = type { %union._zend_value, %union.anon.3, %union.anon.6 }
%union._zend_value = type { i64 }
%union.anon.3 = type { i32 }
%union.anon.6 = type { i32 }
%struct._zend_objects_store = type { ptr, i32, i32, i32 }
%struct._HashTableIterator = type { ptr, i32, i32 }
%union._zend_function = type { %struct._zend_op_array }
%struct._zend_op_array = type { i8, [3 x i8], i32, ptr, ptr, ptr, i32, i32, ptr, ptr, ptr, ptr, i32, i32, i32, i32, ptr, ptr, ptr, ptr, ptr, i32, i32, ptr, ptr, ptr, i32, i32, i32, i32, ptr, ptr, [6 x ptr] }
%struct._zend_op = type { ptr, %union._znode_op, %union._znode_op, %union._znode_op, i32, i32, i8, i8, i8, i8 }
%union._znode_op = type { i32 }
%struct.zend_get_gc_buffer = type { ptr, ptr, ptr }
%struct._zend_call_stack = type { ptr, i64 }
%struct._zend_ast = type { i16, i16, i32, [1 x ptr] }
%struct._znode = type { i8, i8, %union.anon.14 }
%union.anon.14 = type { %struct._zval_struct }

@compiler_globals = global %struct._zend_compiler_globals zeroinitializer, align 8
@executor_globals = global %struct._zend_executor_globals zeroinitializer, align 8
@.str.282 = private unnamed_addr constant [147 x i8] c"Maximum call stack size of %zu bytes (zend.max_allowed_stack_size - zend.reserved_stack_size) reached during compilation. Try splitting expression\00", align 1

; Function Attrs: nounwind uwtable
define internal void @zend_stack_limit_error() #0 {
  %1 = load ptr, ptr getelementptr inbounds (%struct._zend_executor_globals, ptr @executor_globals, i32 0, i32 31), align 8
  %2 = ptrtoint ptr %1 to i64
  %3 = load ptr, ptr getelementptr inbounds (%struct._zend_executor_globals, ptr @executor_globals, i32 0, i32 32), align 8
  %4 = ptrtoint ptr %3 to i64
  %5 = sub i64 %2, %4
  call void (i32, ptr, ...) @zend_error_noreturn(i32 noundef 64, ptr noundef @.str.282, i64 noundef %5) #14
  unreachable
}

; Function Attrs: nounwind uwtable
define internal i32 @zend_short_circuiting_checkpoint() #0 {
  %1 = call i32 @zend_stack_count(ptr noundef getelementptr inbounds (%struct._zend_compiler_globals, ptr @compiler_globals, i32 0, i32 45))
  ret i32 %1
}

; Function Attrs: nounwind uwtable
define internal void @zend_check_stack_limit() #0 {
  %1 = alloca ptr, align 8
  %2 = load ptr, ptr getelementptr inbounds (%struct._zend_executor_globals, ptr @executor_globals, i32 0, i32 32), align 8
  store ptr %2, ptr %1, align 8
  %3 = call ptr @llvm.frameaddress.p0(i32 0)
  %4 = ptrtoint ptr %3 to i64
  %5 = load ptr, ptr %1, align 8
  %6 = ptrtoint ptr %5 to i64
  %7 = icmp ule i64 %4, %6
  %8 = xor i1 %7, true
  %9 = xor i1 %8, true
  %10 = zext i1 %9 to i32
  %11 = sext i32 %10 to i64
  %12 = icmp ne i64 %11, 0
  br i1 %12, label %13, label %14

13:                                               ; preds = %0
  call void @zend_stack_limit_error()
  br label %14

14:                                               ; preds = %13, %0
  ret void
}

; Function Attrs: nounwind uwtable
define internal zeroext i1 @zend_is_call(ptr noundef %0) #0 {
  %2 = alloca ptr, align 8
  store ptr %0, ptr %2, align 8
  %3 = load ptr, ptr %2, align 8
  %4 = getelementptr inbounds %struct._zend_ast, ptr %3, i32 0, i32 0
  %5 = load i16, ptr %4, align 8
  %6 = zext i16 %5 to i32
  %7 = icmp eq i32 %6, 516
  br i1 %7, label %26, label %8

8:                                                ; preds = %1
  %9 = load ptr, ptr %2, align 8
  %10 = getelementptr inbounds %struct._zend_ast, ptr %9, i32 0, i32 0
  %11 = load i16, ptr %10, align 8
  %12 = zext i16 %11 to i32
  %13 = icmp eq i32 %12, 768
  br i1 %13, label %26, label %14

14:                                               ; preds = %8
  %15 = load ptr, ptr %2, align 8
  %16 = getelementptr inbounds %struct._zend_ast, ptr %15, i32 0, i32 0
  %17 = load i16, ptr %16, align 8
  %18 = zext i16 %17 to i32
  %19 = icmp eq i32 %18, 769
  br i1 %19, label %26, label %20

20:                                               ; preds = %14
  %21 = load ptr, ptr %2, align 8
  %22 = getelementptr inbounds %struct._zend_ast, ptr %21, i32 0, i32 0
  %23 = load i16, ptr %22, align 8
  %24 = zext i16 %23 to i32
  %25 = icmp eq i32 %24, 770
  br label %26

26:                                               ; preds = %20, %14, %8, %1
  %27 = phi i1 [ true, %14 ], [ true, %8 ], [ true, %1 ], [ %25, %20 ]
  ret i1 %27
}

; Function Attrs: nounwind uwtable
define internal ptr @zend_compile_var(ptr noundef %0, ptr noundef %1, i32 noundef %2, i1 noundef zeroext %3) #0 {
  %5 = alloca ptr, align 8
  %6 = alloca ptr, align 8
  %7 = alloca i32, align 4
  %8 = alloca i8, align 1
  %9 = alloca i32, align 4
  %10 = alloca ptr, align 8
  store ptr %0, ptr %5, align 8
  store ptr %1, ptr %6, align 8
  store i32 %2, ptr %7, align 4
  %11 = zext i1 %3 to i8
  store i8 %11, ptr %8, align 1
  %12 = call i32 @zend_short_circuiting_checkpoint()
  store i32 %12, ptr %9, align 4
  %13 = load ptr, ptr %5, align 8
  %14 = load ptr, ptr %6, align 8
  %15 = load i32, ptr %7, align 4
  %16 = load i8, ptr %8, align 1
  %17 = trunc i8 %16 to i1
  %18 = call ptr @zend_compile_var_inner(ptr noundef %13, ptr noundef %14, i32 noundef %15, i1 noundef zeroext %17)
  store ptr %18, ptr %10, align 8
  %19 = load i32, ptr %9, align 4
  %20 = load ptr, ptr %5, align 8
  %21 = load ptr, ptr %6, align 8
  call void @zend_short_circuiting_commit(i32 noundef %19, ptr noundef %20, ptr noundef %21)
  %22 = load ptr, ptr %10, align 8
  ret ptr %22
}

; Function Attrs: nounwind uwtable
define internal zeroext i1 @zend_is_variable(ptr noundef %0) #0 {
  %2 = alloca ptr, align 8
  store ptr %0, ptr %2, align 8
  %3 = load ptr, ptr %2, align 8
  %4 = getelementptr inbounds %struct._zend_ast, ptr %3, i32 0, i32 0
  %5 = load i16, ptr %4, align 8
  %6 = zext i16 %5 to i32
  %7 = icmp eq i32 %6, 256
  br i1 %7, label %32, label %8

8:                                                ; preds = %1
  %9 = load ptr, ptr %2, align 8
  %10 = getelementptr inbounds %struct._zend_ast, ptr %9, i32 0, i32 0
  %11 = load i16, ptr %10, align 8
  %12 = zext i16 %11 to i32
  %13 = icmp eq i32 %12, 512
  br i1 %13, label %32, label %14

14:                                               ; preds = %8
  %15 = load ptr, ptr %2, align 8
  %16 = getelementptr inbounds %struct._zend_ast, ptr %15, i32 0, i32 0
  %17 = load i16, ptr %16, align 8
  %18 = zext i16 %17 to i32
  %19 = icmp eq i32 %18, 513
  br i1 %19, label %32, label %20

20:                                               ; preds = %14
  %21 = load ptr, ptr %2, align 8
  %22 = getelementptr inbounds %struct._zend_ast, ptr %21, i32 0, i32 0
  %23 = load i16, ptr %22, align 8
  %24 = zext i16 %23 to i32
  %25 = icmp eq i32 %24, 514
  br i1 %25, label %32, label %26

26:                                               ; preds = %20
  %27 = load ptr, ptr %2, align 8
  %28 = getelementptr inbounds %struct._zend_ast, ptr %27, i32 0, i32 0
  %29 = load i16, ptr %28, align 8
  %30 = zext i16 %29 to i32
  %31 = icmp eq i32 %30, 515
  br label %32

32:                                               ; preds = %26, %20, %14, %8, %1
  %33 = phi i1 [ true, %20 ], [ true, %14 ], [ true, %8 ], [ true, %1 ], [ %31, %26 ]
  ret i1 %33
}

; Function Attrs: nounwind uwtable
define internal void @zend_compile_expr(ptr noundef %0, ptr noundef %1) #0 {
  %3 = alloca ptr, align 8
  %4 = alloca ptr, align 8
  %5 = alloca i32, align 4
  store ptr %0, ptr %3, align 8
  store ptr %1, ptr %4, align 8
  call void @zend_check_stack_limit()
  %6 = call i32 @zend_short_circuiting_checkpoint()
  store i32 %6, ptr %5, align 4
  %7 = load ptr, ptr %3, align 8
  %8 = load ptr, ptr %4, align 8
  call void @zend_compile_expr_inner(ptr noundef %7, ptr noundef %8)
  %9 = load i32, ptr %5, align 4
  %10 = load ptr, ptr %3, align 8
  %11 = load ptr, ptr %4, align 8
  call void @zend_short_circuiting_commit(i32 noundef %9, ptr noundef %10, ptr noundef %11)
  ret void
}

; Function Attrs: nounwind uwtable
define internal void @zend_compile_yield(ptr noundef %0, ptr noundef %1) #0 {
  %3 = alloca ptr, align 8
  %4 = alloca ptr, align 8
  %5 = alloca ptr, align 8
  %6 = alloca ptr, align 8
  %7 = alloca %struct._znode, align 8
  %8 = alloca %struct._znode, align 8
  %9 = alloca ptr, align 8
  %10 = alloca ptr, align 8
  %11 = alloca ptr, align 8
  %12 = alloca i8, align 1
  store ptr %0, ptr %3, align 8
  store ptr %1, ptr %4, align 8
  %13 = load ptr, ptr %4, align 8
  %14 = getelementptr inbounds %struct._zend_ast, ptr %13, i32 0, i32 3
  %15 = getelementptr inbounds [1 x ptr], ptr %14, i64 0, i64 0
  %16 = load ptr, ptr %15, align 8
  store ptr %16, ptr %5, align 8
  %17 = load ptr, ptr %4, align 8
  %18 = getelementptr inbounds %struct._zend_ast, ptr %17, i32 0, i32 3
  %19 = getelementptr inbounds [1 x ptr], ptr %18, i64 0, i64 1
  %20 = load ptr, ptr %19, align 8
  store ptr %20, ptr %6, align 8
  store ptr null, ptr %9, align 8
  store ptr null, ptr %10, align 8
  %21 = load ptr, ptr getelementptr inbounds (%struct._zend_compiler_globals, ptr @compiler_globals, i32 0, i32 4), align 8
  %22 = getelementptr inbounds %struct._zend_op_array, ptr %21, i32 0, i32 2
  %23 = load i32, ptr %22, align 4
  %24 = and i32 %23, 4096
  %25 = icmp ne i32 %24, 0
  %26 = zext i1 %25 to i8
  store i8 %26, ptr %12, align 1
  call void @zend_mark_function_as_generator()
  %27 = load ptr, ptr %6, align 8
  %28 = icmp ne ptr %27, null
  br i1 %28, label %29, label %31

29:                                               ; preds = %2
  %30 = load ptr, ptr %6, align 8
  call void @zend_compile_expr(ptr noundef %8, ptr noundef %30)
  store ptr %8, ptr %10, align 8
  br label %31

31:                                               ; preds = %29, %2
  %32 = load ptr, ptr %5, align 8
  %33 = icmp ne ptr %32, null
  br i1 %33, label %34, label %46

34:                                               ; preds = %31
  %35 = load i8, ptr %12, align 1
  %36 = trunc i8 %35 to i1
  br i1 %36, label %37, label %43

37:                                               ; preds = %34
  %38 = load ptr, ptr %5, align 8
  %39 = call zeroext i1 @zend_is_variable(ptr noundef %38)
  br i1 %39, label %40, label %43

40:                                               ; preds = %37
  %41 = load ptr, ptr %5, align 8
  %42 = call ptr @zend_compile_var(ptr noundef %7, ptr noundef %41, i32 noundef 1, i1 noundef zeroext true)
  br label %45

43:                                               ; preds = %37, %34
  %44 = load ptr, ptr %5, align 8
  call void @zend_compile_expr(ptr noundef %7, ptr noundef %44)
  br label %45

45:                                               ; preds = %43, %40
  store ptr %7, ptr %9, align 8
  br label %46

46:                                               ; preds = %45, %31
  %47 = load ptr, ptr %3, align 8
  %48 = load ptr, ptr %9, align 8
  %49 = load ptr, ptr %10, align 8
  %50 = call ptr @zend_emit_op(ptr noundef %47, i8 noundef zeroext -96, ptr noundef %48, ptr noundef %49)
  store ptr %50, ptr %11, align 8
  %51 = load ptr, ptr %5, align 8
  %52 = icmp ne ptr %51, null
  br i1 %52, label %53, label %62

53:                                               ; preds = %46
  %54 = load i8, ptr %12, align 1
  %55 = trunc i8 %54 to i1
  br i1 %55, label %56, label %62

56:                                               ; preds = %53
  %57 = load ptr, ptr %5, align 8
  %58 = call zeroext i1 @zend_is_call(ptr noundef %57)
  br i1 %58, label %59, label %62

59:                                               ; preds = %56
  %60 = load ptr, ptr %11, align 8
  %61 = getelementptr inbounds %struct._zend_op, ptr %60, i32 0, i32 4
  store i32 1, ptr %61, align 4
  br label %62

62:                                               ; preds = %59, %56, %53, %46
  ret void
}