; Function Attrs: nounwind uwtable
define internal fastcc void @zend_compile_yield(ptr noundef %0, ptr nocapture noundef readonly %1) unnamed_addr #0 {
  %3 = alloca %struct._znode, align 8
  %4 = alloca %struct._znode, align 8
  %5 = getelementptr inbounds i8, ptr %1, i64 8
  %6 = load ptr, ptr %5, align 8
  %7 = getelementptr inbounds i8, ptr %1, i64 16
  %8 = load ptr, ptr %7, align 8
  %9 = load ptr, ptr getelementptr inbounds (%struct._zend_compiler_globals, ptr @compiler_globals, i64 0, i32 4), align 8
  %10 = getelementptr inbounds i8, ptr %9, i64 4
  %11 = load i32, ptr %10, align 4
  %12 = and i32 %11, 4096
  %.not = icmp eq i32 %12, 0
  tail call fastcc void @zend_mark_function_as_generator()
  %.not18 = icmp eq ptr %8, null
  br i1 %.not18, label %22, label %13

13:                                               ; preds = %2
  %14 = load ptr, ptr getelementptr inbounds (%struct._zend_executor_globals, ptr @executor_globals, i64 0, i32 32), align 8
  %15 = tail call ptr @llvm.frameaddress.p0(i32 0)
  %.not.i.i = icmp ugt ptr %15, %14
  br i1 %.not.i.i, label %zend_compile_expr.exit, label %16

16:                                               ; preds = %13
  %17 = load ptr, ptr getelementptr inbounds (%struct._zend_executor_globals, ptr @executor_globals, i64 0, i32 31), align 8
  %18 = ptrtoint ptr %17 to i64
  %19 = ptrtoint ptr %14 to i64
  %20 = sub i64 %18, %19
  tail call void (i32, ptr, ...) @zend_error_noreturn(i32 noundef 64, ptr noundef nonnull @.str.282, i64 noundef %20) #31
  unreachable

zend_compile_expr.exit:                           ; preds = %13
  %21 = tail call i32 @zend_stack_count(ptr noundef nonnull getelementptr inbounds (%struct._zend_compiler_globals, ptr @compiler_globals, i64 0, i32 45)) #30
  call fastcc void @zend_compile_expr_inner(ptr noundef nonnull %4, ptr noundef nonnull %8)
  call fastcc void @zend_short_circuiting_commit(i32 noundef %21, ptr noundef nonnull %4, ptr noundef nonnull %8)
  br label %22

22:                                               ; preds = %zend_compile_expr.exit, %2
  %.015 = phi ptr [ %4, %zend_compile_expr.exit ], [ null, %2 ]
  %.not19 = icmp eq ptr %6, null
  br i1 %.not19, label %.thread, label %24

.thread:                                          ; preds = %22
  %23 = call fastcc ptr @zend_emit_op(ptr noundef %0, i8 noundef zeroext -96, ptr noundef null, ptr noundef %.015)
  br label %zend_is_call.exit

24:                                               ; preds = %22
  br i1 %.not, label %zend_is_variable.exit, label %25

25:                                               ; preds = %24
  %.val20 = load i16, ptr %6, align 8
  switch i16 %.val20, label %zend_is_variable.exit [
    i16 256, label %.thread25
    i16 512, label %.thread25
    i16 513, label %.thread25
    i16 514, label %.thread25
    i16 515, label %.thread25
  ]

.thread25:                                        ; preds = %25, %25, %25, %25, %25
  %26 = call i32 @zend_stack_count(ptr noundef nonnull getelementptr inbounds (%struct._zend_compiler_globals, ptr @compiler_globals, i64 0, i32 45)) #30
  %27 = call fastcc ptr @zend_compile_var_inner(ptr noundef nonnull %3, ptr noundef nonnull %6, i32 noundef 1, i1 noundef zeroext true)
  call fastcc void @zend_short_circuiting_commit(i32 noundef %26, ptr noundef nonnull %3, ptr noundef nonnull %6)
  %28 = call fastcc ptr @zend_emit_op(ptr noundef %0, i8 noundef zeroext -96, ptr noundef nonnull %3, ptr noundef %.015)
  br label %39

zend_is_variable.exit:                            ; preds = %25, %24
  %29 = load ptr, ptr getelementptr inbounds (%struct._zend_executor_globals, ptr @executor_globals, i64 0, i32 32), align 8
  %30 = call ptr @llvm.frameaddress.p0(i32 0)
  %.not.i.i21 = icmp ugt ptr %30, %29
  br i1 %.not.i.i21, label %36, label %31

31:                                               ; preds = %zend_is_variable.exit
  %32 = load ptr, ptr getelementptr inbounds (%struct._zend_executor_globals, ptr @executor_globals, i64 0, i32 31), align 8
  %33 = ptrtoint ptr %32 to i64
  %34 = ptrtoint ptr %29 to i64
  %35 = sub i64 %33, %34
  call void (i32, ptr, ...) @zend_error_noreturn(i32 noundef 64, ptr noundef nonnull @.str.282, i64 noundef %35) #31
  unreachable

36:                                               ; preds = %zend_is_variable.exit
  %37 = call i32 @zend_stack_count(ptr noundef nonnull getelementptr inbounds (%struct._zend_compiler_globals, ptr @compiler_globals, i64 0, i32 45)) #30
  call fastcc void @zend_compile_expr_inner(ptr noundef nonnull %3, ptr noundef nonnull %6)
  call fastcc void @zend_short_circuiting_commit(i32 noundef %37, ptr noundef nonnull %3, ptr noundef nonnull %6)
  %38 = call fastcc ptr @zend_emit_op(ptr noundef %0, i8 noundef zeroext -96, ptr noundef nonnull %3, ptr noundef %.015)
  br i1 %.not, label %zend_is_call.exit, label %39

39:                                               ; preds = %.thread25, %36
  %40 = phi ptr [ %28, %.thread25 ], [ %38, %36 ]
  %.val = load i16, ptr %6, align 8
  switch i16 %.val, label %zend_is_call.exit [
    i16 516, label %41
    i16 768, label %41
    i16 769, label %41
    i16 770, label %41
  ]

41:                                               ; preds = %39, %39, %39, %39
  %42 = getelementptr inbounds i8, ptr %40, i64 20
  store i32 1, ptr %42, align 4
  br label %zend_is_call.exit

zend_is_call.exit:                                ; preds = %39, %.thread, %36, %41
  ret void
}